target datalayout = "e-m:e-p270:32:32-p271:32:32-p272:64:64-i64:64-i128:128-f80:128-n8:16:32:64-S128"
target triple = "x86_64-pc-linux-gnu"

%struct.mempacket_test_ctx_st = type { ptr, i16, i32, i32, i32, i32, i32, i32, i32, i32 }
%struct.mempacket_st = type { ptr, i32, i32, i32 }

@.str.1 = private unnamed_addr constant [37 x i8] c"../openssl/test/helpers/ssltestlib.c\00", align 1

; Function Attrs: nounwind uwtable
define internal void @mempacket_free(ptr noundef %0) #0 {
  %2 = alloca ptr, align 8
  store ptr %0, ptr %2, align 8, !tbaa !24
  %3 = load ptr, ptr %2, align 8, !tbaa !24
  %4 = getelementptr inbounds nuw %struct.mempacket_st, ptr %3, i32 0, i32 0
  %5 = load ptr, ptr %4, align 8, !tbaa !33
  %6 = icmp ne ptr %5, null
  br i1 %6, label %7, label %11

7:                                                ; preds = %1
  %8 = load ptr, ptr %2, align 8, !tbaa !24
  %9 = getelementptr inbounds nuw %struct.mempacket_st, ptr %8, i32 0, i32 0
  %10 = load ptr, ptr %9, align 8, !tbaa !33
  call void @CRYPTO_free(ptr noundef %10, ptr noundef @.str.1, i32 noundef 267)
  br label %11

11:                                               ; preds = %7, %1
  %12 = load ptr, ptr %2, align 8, !tbaa !24
  call void @CRYPTO_free(ptr noundef %12, ptr noundef @.str.1, i32 noundef 268)
  ret void
}

; Function Attrs: inlinehint nounwind uwtable
define internal ptr @sk_MEMPACKET_shift(ptr noundef %0) #3 {
  %2 = alloca ptr, align 8
  store ptr %0, ptr %2, align 8, !tbaa !43
  %3 = load ptr, ptr %2, align 8, !tbaa !43
  %4 = call ptr @OPENSSL_sk_shift(ptr noundef %3)
  ret ptr %4
}

; Function Attrs: inlinehint nounwind uwtable
define internal ptr @sk_MEMPACKET_value(ptr noundef %0, i32 noundef %1) #3 {
  %3 = alloca ptr, align 8
  %4 = alloca i32, align 4
  store ptr %0, ptr %3, align 8, !tbaa !43
  store i32 %1, ptr %4, align 4, !tbaa !13
  %5 = load ptr, ptr %3, align 8, !tbaa !43
  %6 = load i32, ptr %4, align 4, !tbaa !13
  %7 = call ptr @OPENSSL_sk_value(ptr noundef %5, i32 noundef %6)
  ret ptr %7
}

; Function Attrs: nounwind uwtable
define internal i32 @mempacket_test_read(ptr noundef %0, ptr noundef %1, i32 noundef %2) #0 {
  %4 = alloca i32, align 4
  %5 = alloca ptr, align 8
  %6 = alloca ptr, align 8
  %7 = alloca i32, align 4
  %8 = alloca ptr, align 8
  %9 = alloca ptr, align 8
  %10 = alloca ptr, align 8
  %11 = alloca i32, align 4
  %12 = alloca i32, align 4
  %13 = alloca i32, align 4
  %14 = alloca i32, align 4
  %15 = alloca i32, align 4
  %16 = alloca i32, align 4
  store ptr %0, ptr %5, align 8, !tbaa !9
  store ptr %1, ptr %6, align 8, !tbaa !11
  store i32 %2, ptr %7, align 4, !tbaa !13
  call void @llvm.lifetime.start.p0(i64 8, ptr %8) #10
  %17 = load ptr, ptr %5, align 8, !tbaa !9
  %18 = call ptr @BIO_get_data(ptr noundef %17)
  store ptr %18, ptr %8, align 8, !tbaa !18
  call void @llvm.lifetime.start.p0(i64 8, ptr %9) #10
  call void @llvm.lifetime.start.p0(i64 8, ptr %10) #10
  call void @llvm.lifetime.start.p0(i64 4, ptr %11) #10
  call void @llvm.lifetime.start.p0(i64 4, ptr %12) #10
  call void @llvm.lifetime.start.p0(i64 4, ptr %13) #10
  call void @llvm.lifetime.start.p0(i64 4, ptr %14) #10
  call void @llvm.lifetime.start.p0(i64 4, ptr %15) #10
  %19 = load ptr, ptr %5, align 8, !tbaa !9
  call void @BIO_clear_flags(ptr noundef %19, i32 noundef 15)
  %20 = load ptr, ptr %8, align 8, !tbaa !18
  %21 = getelementptr inbounds nuw %struct.mempacket_test_ctx_st, ptr %20, i32 0, i32 0
  %22 = load ptr, ptr %21, align 8, !tbaa !20
  %23 = call ptr @sk_MEMPACKET_value(ptr noundef %22, i32 noundef 0)
  store ptr %23, ptr %9, align 8, !tbaa !24
  %24 = icmp eq ptr %23, null
  br i1 %24, label %33, label %25

25:                                               ; preds = %3
  %26 = load ptr, ptr %9, align 8, !tbaa !24
  %27 = getelementptr inbounds nuw %struct.mempacket_st, ptr %26, i32 0, i32 2
  %28 = load i32, ptr %27, align 4, !tbaa !26
  %29 = load ptr, ptr %8, align 8, !tbaa !18
  %30 = getelementptr inbounds nuw %struct.mempacket_test_ctx_st, ptr %29, i32 0, i32 3
  %31 = load i32, ptr %30, align 8, !tbaa !28
  %32 = icmp ne i32 %28, %31
  br i1 %32, label %33, label %35

33:                                               ; preds = %25, %3
  %34 = load ptr, ptr %5, align 8, !tbaa !9
  call void @BIO_set_flags(ptr noundef %34, i32 noundef 9)
  store i32 -1, ptr %4, align 4
  store i32 1, ptr %16, align 4
  br label %205

35:                                               ; preds = %25
  %36 = load ptr, ptr %8, align 8, !tbaa !18
  %37 = getelementptr inbounds nuw %struct.mempacket_test_ctx_st, ptr %36, i32 0, i32 0
  %38 = load ptr, ptr %37, align 8, !tbaa !20
  %39 = call ptr @sk_MEMPACKET_shift(ptr noundef %38)
  %40 = load ptr, ptr %8, align 8, !tbaa !18
  %41 = getelementptr inbounds nuw %struct.mempacket_test_ctx_st, ptr %40, i32 0, i32 3
  %42 = load i32, ptr %41, align 8, !tbaa !28
  %43 = add i32 %42, 1
  store i32 %43, ptr %41, align 8, !tbaa !28
  %44 = load i32, ptr %7, align 4, !tbaa !13
  %45 = load ptr, ptr %9, align 8, !tbaa !24
  %46 = getelementptr inbounds nuw %struct.mempacket_st, ptr %45, i32 0, i32 1
  %47 = load i32, ptr %46, align 8, !tbaa !29
  %48 = icmp sgt i32 %44, %47
  br i1 %48, label %49, label %53

49:                                               ; preds = %35
  %50 = load ptr, ptr %9, align 8, !tbaa !24
  %51 = getelementptr inbounds nuw %struct.mempacket_st, ptr %50, i32 0, i32 1
  %52 = load i32, ptr %51, align 8, !tbaa !29
  store i32 %52, ptr %7, align 4, !tbaa !13
  br label %53

53:                                               ; preds = %49, %35
  %54 = load ptr, ptr %9, align 8, !tbaa !24
  %55 = getelementptr inbounds nuw %struct.mempacket_st, ptr %54, i32 0, i32 3
  %56 = load i32, ptr %55, align 8, !tbaa !30
  %57 = icmp ne i32 %56, 2
  br i1 %57, label %58, label %196

58:                                               ; preds = %53
  %59 = load ptr, ptr %8, align 8, !tbaa !18
  %60 = getelementptr inbounds nuw %struct.mempacket_test_ctx_st, ptr %59, i32 0, i32 5
  %61 = load i32, ptr %60, align 8, !tbaa !31
  %62 = icmp ne i32 %61, 0
  br i1 %62, label %68, label %63

63:                                               ; preds = %58
  %64 = load ptr, ptr %8, align 8, !tbaa !18
  %65 = getelementptr inbounds nuw %struct.mempacket_test_ctx_st, ptr %64, i32 0, i32 8
  %66 = load i32, ptr %65, align 4, !tbaa !32
  %67 = icmp sge i32 %66, 0
  br i1 %67, label %68, label %196

68:                                               ; preds = %63, %58
  %69 = load ptr, ptr %9, align 8, !tbaa !24
  %70 = getelementptr inbounds nuw %struct.mempacket_st, ptr %69, i32 0, i32 1
  %71 = load i32, ptr %70, align 8, !tbaa !29
  store i32 %71, ptr %11, align 4, !tbaa !13
  %72 = load ptr, ptr %9, align 8, !tbaa !24
  %73 = getelementptr inbounds nuw %struct.mempacket_st, ptr %72, i32 0, i32 0
  %74 = load ptr, ptr %73, align 8, !tbaa !33
  store ptr %74, ptr %10, align 8, !tbaa !11
  br label %75

75:                                               ; preds = %191, %68
  %76 = load i32, ptr %11, align 4, !tbaa !13
  %77 = icmp sgt i32 %76, 0
  br i1 %77, label %78, label %195

78:                                               ; preds = %75
  %79 = load i32, ptr %11, align 4, !tbaa !13
  %80 = icmp slt i32 %79, 13
  br i1 %80, label %81, label %82

81:                                               ; preds = %78
  store i32 -1, ptr %4, align 4
  store i32 1, ptr %16, align 4
  br label %205

82:                                               ; preds = %78
  %83 = load ptr, ptr %10, align 8, !tbaa !11
  %84 = getelementptr inbounds i8, ptr %83, i64 3
  %85 = load i8, ptr %84, align 1, !tbaa !34
  %86 = zext i8 %85 to i32
  %87 = shl i32 %86, 8
  %88 = load ptr, ptr %10, align 8, !tbaa !11
  %89 = getelementptr inbounds i8, ptr %88, i64 4
  %90 = load i8, ptr %89, align 1, !tbaa !34
  %91 = zext i8 %90 to i32
  %92 = or i32 %87, %91
  store i32 %92, ptr %15, align 4, !tbaa !13
  %93 = load i32, ptr %15, align 4, !tbaa !13
  %94 = load ptr, ptr %8, align 8, !tbaa !18
  %95 = getelementptr inbounds nuw %struct.mempacket_test_ctx_st, ptr %94, i32 0, i32 1
  %96 = load i16, ptr %95, align 8, !tbaa !35
  %97 = zext i16 %96 to i32
  %98 = icmp ne i32 %93, %97
  br i1 %98, label %99, label %106

99:                                               ; preds = %82
  %100 = load i32, ptr %15, align 4, !tbaa !13
  %101 = trunc i32 %100 to i16
  %102 = load ptr, ptr %8, align 8, !tbaa !18
  %103 = getelementptr inbounds nuw %struct.mempacket_test_ctx_st, ptr %102, i32 0, i32 1
  store i16 %101, ptr %103, align 8, !tbaa !35
  %104 = load ptr, ptr %8, align 8, !tbaa !18
  %105 = getelementptr inbounds nuw %struct.mempacket_test_ctx_st, ptr %104, i32 0, i32 2
  store i32 0, ptr %105, align 4, !tbaa !36
  br label %106

106:                                              ; preds = %99, %82
  %107 = load ptr, ptr %8, align 8, !tbaa !18
  %108 = getelementptr inbounds nuw %struct.mempacket_test_ctx_st, ptr %107, i32 0, i32 2
  %109 = load i32, ptr %108, align 4, !tbaa !36
  store i32 %109, ptr %12, align 4, !tbaa !13
  store i32 0, ptr %13, align 4, !tbaa !13
  br label %110

110:                                              ; preds = %123, %106
  %111 = load i32, ptr %12, align 4, !tbaa !13
  %112 = and i32 %111, 255
  %113 = trunc i32 %112 to i8
  %114 = load ptr, ptr %10, align 8, !tbaa !11
  %115 = load i32, ptr %13, align 4, !tbaa !13
  %116 = sub i32 10, %115
  %117 = zext i32 %116 to i64
  %118 = getelementptr inbounds nuw i8, ptr %114, i64 %117
  store i8 %113, ptr %118, align 1, !tbaa !34
  %119 = load i32, ptr %12, align 4, !tbaa !13
  %120 = lshr i32 %119, 8
  store i32 %120, ptr %12, align 4, !tbaa !13
  %121 = load i32, ptr %13, align 4, !tbaa !13
  %122 = add i32 %121, 1
  store i32 %122, ptr %13, align 4, !tbaa !13
  br label %123

123:                                              ; preds = %110
  %124 = load i32, ptr %12, align 4, !tbaa !13
  %125 = icmp ugt i32 %124, 0
  br i1 %125, label %110, label %126, !llvm.loop !37

126:                                              ; preds = %123
  %127 = load ptr, ptr %10, align 8, !tbaa !11
  %128 = getelementptr inbounds i8, ptr %127, i64 11
  %129 = load i8, ptr %128, align 1, !tbaa !34
  %130 = zext i8 %129 to i32
  %131 = shl i32 %130, 8
  %132 = load ptr, ptr %10, align 8, !tbaa !11
  %133 = getelementptr inbounds i8, ptr %132, i64 12
  %134 = load i8, ptr %133, align 1, !tbaa !34
  %135 = zext i8 %134 to i32
  %136 = or i32 %131, %135
  %137 = add nsw i32 %136, 13
  store i32 %137, ptr %14, align 4, !tbaa !13
  %138 = load i32, ptr %11, align 4, !tbaa !13
  %139 = load i32, ptr %14, align 4, !tbaa !13
  %140 = icmp slt i32 %138, %139
  br i1 %140, label %141, label %142

141:                                              ; preds = %126
  store i32 -1, ptr %4, align 4
  store i32 1, ptr %16, align 4
  br label %205

142:                                              ; preds = %126
  %143 = load ptr, ptr %8, align 8, !tbaa !18
  %144 = getelementptr inbounds nuw %struct.mempacket_test_ctx_st, ptr %143, i32 0, i32 8
  %145 = load i32, ptr %144, align 4, !tbaa !32
  %146 = load ptr, ptr %8, align 8, !tbaa !18
  %147 = getelementptr inbounds nuw %struct.mempacket_test_ctx_st, ptr %146, i32 0, i32 2
  %148 = load i32, ptr %147, align 4, !tbaa !36
  %149 = icmp eq i32 %145, %148
  br i1 %149, label %150, label %181

150:                                              ; preds = %142
  %151 = load ptr, ptr %8, align 8, !tbaa !18
  %152 = getelementptr inbounds nuw %struct.mempacket_test_ctx_st, ptr %151, i32 0, i32 7
  %153 = load i32, ptr %152, align 8, !tbaa !39
  %154 = load i32, ptr %15, align 4, !tbaa !13
  %155 = icmp eq i32 %153, %154
  br i1 %155, label %156, label %181

156:                                              ; preds = %150
  %157 = load i32, ptr %11, align 4, !tbaa !13
  %158 = load i32, ptr %14, align 4, !tbaa !13
  %159 = icmp sgt i32 %157, %158
  br i1 %159, label %160, label %170

160:                                              ; preds = %156
  %161 = load ptr, ptr %10, align 8, !tbaa !11
  %162 = load ptr, ptr %10, align 8, !tbaa !11
  %163 = load i32, ptr %14, align 4, !tbaa !13
  %164 = zext i32 %163 to i64
  %165 = getelementptr inbounds nuw i8, ptr %162, i64 %164
  %166 = load i32, ptr %11, align 4, !tbaa !13
  %167 = load i32, ptr %14, align 4, !tbaa !13
  %168 = sub i32 %166, %167
  %169 = zext i32 %168 to i64
  call void @llvm.memmove.p0.p0.i64(ptr align 1 %161, ptr align 1 %165, i64 %169, i1 false)
  br label %170

170:                                              ; preds = %160, %156
  %171 = load i32, ptr %14, align 4, !tbaa !13
  %172 = load i32, ptr %7, align 4, !tbaa !13
  %173 = sub i32 %172, %171
  store i32 %173, ptr %7, align 4, !tbaa !13
  %174 = load ptr, ptr %8, align 8, !tbaa !18
  %175 = getelementptr inbounds nuw %struct.mempacket_test_ctx_st, ptr %174, i32 0, i32 8
  store i32 -1, ptr %175, align 4, !tbaa !32
  %176 = load i32, ptr %7, align 4, !tbaa !13
  %177 = icmp eq i32 %176, 0
  br i1 %177, label %178, label %180

178:                                              ; preds = %170
  %179 = load ptr, ptr %5, align 8, !tbaa !9
  call void @BIO_set_flags(ptr noundef %179, i32 noundef 9)
  br label %180

180:                                              ; preds = %178, %170
  br label %186

181:                                              ; preds = %150, %142
  %182 = load i32, ptr %14, align 4, !tbaa !13
  %183 = load ptr, ptr %10, align 8, !tbaa !11
  %184 = zext i32 %182 to i64
  %185 = getelementptr inbounds nuw i8, ptr %183, i64 %184
  store ptr %185, ptr %10, align 8, !tbaa !11
  br label %186

186:                                              ; preds = %181, %180
  %187 = load ptr, ptr %8, align 8, !tbaa !18
  %188 = getelementptr inbounds nuw %struct.mempacket_test_ctx_st, ptr %187, i32 0, i32 2
  %189 = load i32, ptr %188, align 4, !tbaa !36
  %190 = add i32 %189, 1
  store i32 %190, ptr %188, align 4, !tbaa !36
  br label %191

191:                                              ; preds = %186
  %192 = load i32, ptr %14, align 4, !tbaa !13
  %193 = load i32, ptr %11, align 4, !tbaa !13
  %194 = sub i32 %193, %192
  store i32 %194, ptr %11, align 4, !tbaa !13
  br label %75, !llvm.loop !40

195:                                              ; preds = %75
  br label %196

196:                                              ; preds = %195, %63, %53
  %197 = load ptr, ptr %6, align 8, !tbaa !11
  %198 = load ptr, ptr %9, align 8, !tbaa !24
  %199 = getelementptr inbounds nuw %struct.mempacket_st, ptr %198, i32 0, i32 0
  %200 = load ptr, ptr %199, align 8, !tbaa !33
  %201 = load i32, ptr %7, align 4, !tbaa !13
  %202 = sext i32 %201 to i64
  call void @llvm.memcpy.p0.p0.i64(ptr align 1 %197, ptr align 1 %200, i64 %202, i1 false)
  %203 = load ptr, ptr %9, align 8, !tbaa !24
  call void @mempacket_free(ptr noundef %203)
  %204 = load i32, ptr %7, align 4, !tbaa !13
  store i32 %204, ptr %4, align 4
  store i32 1, ptr %16, align 4
  br label %205

205:                                              ; preds = %196, %141, %81, %33
  call void @llvm.lifetime.end.p0(i64 4, ptr %15) #10
  call void @llvm.lifetime.end.p0(i64 4, ptr %14) #10
  call void @llvm.lifetime.end.p0(i64 4, ptr %13) #10
  call void @llvm.lifetime.end.p0(i64 4, ptr %12) #10
  call void @llvm.lifetime.end.p0(i64 4, ptr %11) #10
  call void @llvm.lifetime.end.p0(i64 8, ptr %10) #10
  call void @llvm.lifetime.end.p0(i64 8, ptr %9) #10
  call void @llvm.lifetime.end.p0(i64 8, ptr %8) #10
  %206 = load i32, ptr %4, align 4
  ret i32 %206
}