; Function Attrs: nounwind uwtable
define internal i32 @mempacket_test_read(ptr noundef %0, ptr noundef writeonly captures(none) %1, i32 noundef %2) #0 {
  %4 = tail call ptr @BIO_get_data(ptr noundef %0) #14
  tail call void @BIO_clear_flags(ptr noundef %0, i32 noundef 15) #14
  %5 = load ptr, ptr %4, align 8, !tbaa !15
  %6 = tail call ptr @OPENSSL_sk_value(ptr noundef %5, i32 noundef 0) #14
  %7 = icmp eq ptr %6, null
  br i1 %7, label %13, label %8

8:                                                ; preds = %3
  %9 = getelementptr inbounds nuw i8, ptr %6, i64 12
  %10 = load i32, ptr %9, align 4, !tbaa !20
  %11 = getelementptr inbounds nuw i8, ptr %4, i64 16
  %12 = load i32, ptr %11, align 8, !tbaa !23
  %.not = icmp eq i32 %10, %12
  br i1 %.not, label %14, label %13

13:                                               ; preds = %8, %3
  tail call void @BIO_set_flags(ptr noundef %0, i32 noundef 9) #14
  br label %.loopexit79

14:                                               ; preds = %8
  %15 = load ptr, ptr %4, align 8, !tbaa !15
  %16 = tail call ptr @OPENSSL_sk_shift(ptr noundef %15) #14
  %17 = load i32, ptr %11, align 8, !tbaa !23
  %18 = add i32 %17, 1
  store i32 %18, ptr %11, align 8, !tbaa !23
  %19 = getelementptr inbounds nuw i8, ptr %6, i64 8
  %20 = load i32, ptr %19, align 8, !tbaa !24
  %spec.select = tail call i32 @llvm.smin.i32(i32 %2, i32 %20)
  %21 = getelementptr inbounds nuw i8, ptr %6, i64 16
  %22 = load i32, ptr %21, align 8, !tbaa !25
  %.not75 = icmp eq i32 %22, 2
  br i1 %.not75, label %.loopexit, label %23

23:                                               ; preds = %14
  %24 = getelementptr inbounds nuw i8, ptr %4, i64 24
  %25 = load i32, ptr %24, align 8, !tbaa !26
  %.not76 = icmp eq i32 %25, 0
  br i1 %.not76, label %26, label %31

26:                                               ; preds = %23
  %27 = getelementptr inbounds nuw i8, ptr %4, i64 36
  %28 = load i32, ptr %27, align 4, !tbaa !27
  %29 = icmp sgt i32 %28, -1
  %30 = icmp sgt i32 %20, 0
  %or.cond = select i1 %29, i1 %30, i1 false
  br i1 %or.cond, label %.lr.ph, label %.loopexit

31:                                               ; preds = %23
  %.old = icmp sgt i32 %20, 0
  br i1 %.old, label %.lr.ph, label %.loopexit

.lr.ph:                                           ; preds = %26, %31
  %32 = load ptr, ptr %6, align 8, !tbaa !28
  %33 = getelementptr inbounds nuw i8, ptr %4, i64 8
  %34 = getelementptr inbounds nuw i8, ptr %4, i64 12
  %35 = getelementptr inbounds nuw i8, ptr %4, i64 36
  %36 = getelementptr inbounds nuw i8, ptr %4, i64 32
  br label %37

37:                                               ; preds = %.lr.ph, %90
  %.284 = phi i32 [ %spec.select, %.lr.ph ], [ %.3, %90 ]
  %.06582 = phi i32 [ %20, %.lr.ph ], [ %93, %90 ]
  %.06681 = phi ptr [ %32, %.lr.ph ], [ %.167, %90 ]
  %38 = icmp samesign ult i32 %.06582, 13
  br i1 %38, label %.loopexit79, label %39

39:                                               ; preds = %37
  %40 = getelementptr inbounds nuw i8, ptr %.06681, i64 3
  %41 = load i8, ptr %40, align 1, !tbaa !9
  %42 = zext i8 %41 to i32
  %43 = shl nuw nsw i32 %42, 8
  %44 = getelementptr inbounds nuw i8, ptr %.06681, i64 4
  %45 = load i8, ptr %44, align 1, !tbaa !9
  %46 = zext i8 %45 to i32
  %47 = or disjoint i32 %43, %46
  %48 = load i16, ptr %33, align 8, !tbaa !29
  %49 = zext i16 %48 to i32
  %.not77 = icmp eq i32 %47, %49
  br i1 %.not77, label %._crit_edge, label %50

._crit_edge:                                      ; preds = %39
  %.pre = load i32, ptr %34, align 4, !tbaa !30
  br label %.preheader

50:                                               ; preds = %39
  %51 = trunc nuw i32 %47 to i16
  store i16 %51, ptr %33, align 8, !tbaa !29
  store i32 0, ptr %34, align 4, !tbaa !30
  br label %.preheader

.preheader:                                       ; preds = %._crit_edge, %50
  %.064.ph = phi i32 [ 0, %50 ], [ %.pre, %._crit_edge ]
  br label %52

52:                                               ; preds = %.preheader, %52
  %indvars.iv = phi i64 [ %indvars.iv.next, %52 ], [ 0, %.preheader ]
  %.064 = phi i32 [ %57, %52 ], [ %.064.ph, %.preheader ]
  %53 = trunc i32 %.064 to i8
  %54 = sub nsw i64 10, %indvars.iv
  %55 = and i64 %54, 4294967295
  %56 = getelementptr inbounds nuw i8, ptr %.06681, i64 %55
  store i8 %53, ptr %56, align 1, !tbaa !9
  %57 = lshr i32 %.064, 8
  %indvars.iv.next = add nuw nsw i64 %indvars.iv, 1
  %.not78 = icmp ult i32 %.064, 256
  br i1 %.not78, label %58, label %52, !llvm.loop !31

58:                                               ; preds = %52
  %59 = getelementptr inbounds nuw i8, ptr %.06681, i64 11
  %60 = load i8, ptr %59, align 1, !tbaa !9
  %61 = zext i8 %60 to i32
  %62 = shl nuw nsw i32 %61, 8
  %63 = getelementptr inbounds nuw i8, ptr %.06681, i64 12
  %64 = load i8, ptr %63, align 1, !tbaa !9
  %65 = zext i8 %64 to i32
  %66 = or disjoint i32 %62, %65
  %67 = add nuw nsw i32 %66, 13
  %68 = icmp slt i32 %.06582, %67
  br i1 %68, label %.loopexit79, label %69

69:                                               ; preds = %58
  %70 = load i32, ptr %35, align 4, !tbaa !27
  %71 = load i32, ptr %34, align 4, !tbaa !30
  %72 = icmp eq i32 %70, %71
  br i1 %72, label %73, label %87

73:                                               ; preds = %69
  %74 = load i32, ptr %36, align 8, !tbaa !32
  %75 = icmp eq i32 %74, %47
  br i1 %75, label %76, label %87

76:                                               ; preds = %73
  %77 = icmp samesign ugt i32 %.06582, %67
  br i1 %77, label %78, label %83

78:                                               ; preds = %76
  %79 = zext nneg i32 %67 to i64
  %80 = getelementptr inbounds nuw i8, ptr %.06681, i64 %79
  %81 = sub nuw nsw i32 %.06582, %67
  %82 = zext nneg i32 %81 to i64
  tail call void @llvm.memmove.p0.p0.i64(ptr nonnull align 1 %.06681, ptr nonnull align 1 %80, i64 %82, i1 false)
  br label %83

83:                                               ; preds = %78, %76
  %84 = sub i32 %.284, %67
  store i32 -1, ptr %35, align 4, !tbaa !27
  %85 = icmp eq i32 %84, 0
  br i1 %85, label %86, label %90

86:                                               ; preds = %83
  tail call void @BIO_set_flags(ptr noundef %0, i32 noundef 9) #14
  br label %90

87:                                               ; preds = %73, %69
  %88 = zext nneg i32 %67 to i64
  %89 = getelementptr inbounds nuw i8, ptr %.06681, i64 %88
  br label %90

90:                                               ; preds = %83, %86, %87
  %.167 = phi ptr [ %.06681, %86 ], [ %.06681, %83 ], [ %89, %87 ]
  %.3 = phi i32 [ 0, %86 ], [ %84, %83 ], [ %.284, %87 ]
  %91 = load i32, ptr %34, align 4, !tbaa !30
  %92 = add i32 %91, 1
  store i32 %92, ptr %34, align 4, !tbaa !30
  %93 = sub nsw i32 %.06582, %67
  %94 = icmp sgt i32 %93, 0
  br i1 %94, label %37, label %.loopexit, !llvm.loop !33

.loopexit:                                        ; preds = %90, %31, %26, %14
  %.1 = phi i32 [ %spec.select, %26 ], [ %spec.select, %14 ], [ %spec.select, %31 ], [ %.3, %90 ]
  %95 = load ptr, ptr %6, align 8, !tbaa !28
  %96 = sext i32 %.1 to i64
  tail call void @llvm.memcpy.p0.p0.i64(ptr align 1 %1, ptr align 1 %95, i64 %96, i1 false)
  %97 = load ptr, ptr %6, align 8, !tbaa !28
  %.not.i = icmp eq ptr %97, null
  br i1 %.not.i, label %mempacket_free.exit, label %98

98:                                               ; preds = %.loopexit
  tail call void @CRYPTO_free(ptr noundef nonnull %97, ptr noundef nonnull @.str.1, i32 noundef 267) #14
  br label %mempacket_free.exit

mempacket_free.exit:                              ; preds = %.loopexit, %98
  tail call void @CRYPTO_free(ptr noundef nonnull %6, ptr noundef nonnull @.str.1, i32 noundef 268) #14
  br label %.loopexit79

.loopexit79:                                      ; preds = %58, %37, %mempacket_free.exit, %13
  %.0 = phi i32 [ -1, %13 ], [ %.1, %mempacket_free.exit ], [ -1, %37 ], [ -1, %58 ]
  ret i32 %.0
}